target datalayout = "e-m:e-p270:32:32-p271:32:32-p272:64:64-i64:64-i128:128-f80:128-n8:16:32:64-S128"
target triple = "x86_64-pc-linux-gnu"

@.str.3 = private unnamed_addr constant [2 x i8] c"\0A\00", align 1
@.str.4 = private unnamed_addr constant [63 x i8] c"    fsm_export [-noauto] [-o filename] [-origenc] [selection]\0A\00", align 1
@.str.5 = private unnamed_addr constant [74 x i8] c"This pass creates a KISS2 file for every selected FSM. For FSMs with the\0A\00", align 1
@.str.6 = private unnamed_addr constant [80 x i8] c"'fsm_export' attribute set, the attribute value is used as filename, otherwise\0A\00", align 1
@.str.7 = private unnamed_addr constant [79 x i8] c"the module and cell name is used as filename. If the parameter '-o' is given,\0A\00", align 1
@.str.8 = private unnamed_addr constant [78 x i8] c"the first exported FSM is written to the specified filename. This overwrites\0A\00", align 1
@.str.9 = private unnamed_addr constant [78 x i8] c"the setting as specified with the 'fsm_export' attribute. All other FSMs are\0A\00", align 1
@.str.10 = private unnamed_addr constant [50 x i8] c"exported to the default name as mentioned above.\0A\00", align 1
@.str.11 = private unnamed_addr constant [13 x i8] c"    -noauto\0A\00", align 1
@.str.12 = private unnamed_addr constant [67 x i8] c"        only export FSMs that have the 'fsm_export' attribute set\0A\00", align 1
@.str.13 = private unnamed_addr constant [17 x i8] c"    -o filename\0A\00", align 1
@.str.14 = private unnamed_addr constant [44 x i8] c"        filename of the first exported FSM\0A\00", align 1
@.str.15 = private unnamed_addr constant [14 x i8] c"    -origenc\0A\00", align 1
@.str.16 = private unnamed_addr constant [73 x i8] c"        use binary state encoding as state names instead of s0, s1, ...\0A\00", align 1

; Function Attrs: mustprogress uwtable
define internal void @_ZN12_GLOBAL__N_113FsmExportPass4helpEv(ptr noundef nonnull align 8 dereferenceable(104) %0) unnamed_addr #4 align 2 {
  %2 = alloca ptr, align 8
  store ptr %0, ptr %2, align 8
  call void (ptr, ...) @_ZN5Yosys3logEPKcz(ptr noundef @.str.3)
  call void (ptr, ...) @_ZN5Yosys3logEPKcz(ptr noundef @.str.4)
  call void (ptr, ...) @_ZN5Yosys3logEPKcz(ptr noundef @.str.3)
  call void (ptr, ...) @_ZN5Yosys3logEPKcz(ptr noundef @.str.5)
  call void (ptr, ...) @_ZN5Yosys3logEPKcz(ptr noundef @.str.6)
  call void (ptr, ...) @_ZN5Yosys3logEPKcz(ptr noundef @.str.7)
  call void (ptr, ...) @_ZN5Yosys3logEPKcz(ptr noundef @.str.8)
  call void (ptr, ...) @_ZN5Yosys3logEPKcz(ptr noundef @.str.9)
  call void (ptr, ...) @_ZN5Yosys3logEPKcz(ptr noundef @.str.10)
  call void (ptr, ...) @_ZN5Yosys3logEPKcz(ptr noundef @.str.3)
  call void (ptr, ...) @_ZN5Yosys3logEPKcz(ptr noundef @.str.11)
  call void (ptr, ...) @_ZN5Yosys3logEPKcz(ptr noundef @.str.12)
  call void (ptr, ...) @_ZN5Yosys3logEPKcz(ptr noundef @.str.3)
  call void (ptr, ...) @_ZN5Yosys3logEPKcz(ptr noundef @.str.13)
  call void (ptr, ...) @_ZN5Yosys3logEPKcz(ptr noundef @.str.14)
  call void (ptr, ...) @_ZN5Yosys3logEPKcz(ptr noundef @.str.3)
  call void (ptr, ...) @_ZN5Yosys3logEPKcz(ptr noundef @.str.15)
  call void (ptr, ...) @_ZN5Yosys3logEPKcz(ptr noundef @.str.16)
  call void (ptr, ...) @_ZN5Yosys3logEPKcz(ptr noundef @.str.3)
  ret void
}